target datalayout = "e-m:e-p270:32:32-p271:32:32-p272:64:64-i64:64-i128:128-f80:128-n8:16:32:64-S128"
target triple = "x86_64-pc-linux-gnu"

%"class.gmx::ArrayRef" = type { %"struct.gmx::ArrayRefIter", %"struct.gmx::ArrayRefIter" }
%"struct.gmx::ArrayRefIter" = type { ptr }

; Function Attrs: mustprogress nounwind uwtable
define linkonce_odr noundef nonnull align 8 dereferenceable(8) ptr @_ZNK3gmx12ArrayRefIterIKdEdeEv(ptr noundef nonnull align 8 dereferenceable(8) %0) #2 comdat align 2 {
  %2 = alloca ptr, align 8
  store ptr %0, ptr %2, align 8, !tbaa !15
  %3 = load ptr, ptr %2, align 8
  %4 = getelementptr inbounds nuw %"struct.gmx::ArrayRefIter", ptr %3, i32 0, i32 0
  %5 = load ptr, ptr %4, align 8, !tbaa !17
  ret ptr %5
}

; Function Attrs: mustprogress nounwind uwtable
define linkonce_odr noundef nonnull align 8 dereferenceable(8) ptr @_ZN3gmx12ArrayRefIterIKdEpLEl(ptr noundef nonnull align 8 dereferenceable(8) %0, i64 noundef %1) #2 comdat align 2 {
  %3 = alloca ptr, align 8
  %4 = alloca i64, align 8
  store ptr %0, ptr %3, align 8, !tbaa !15
  store i64 %1, ptr %4, align 8, !tbaa !13
  %5 = load ptr, ptr %3, align 8
  %6 = load i64, ptr %4, align 8, !tbaa !13
  %7 = getelementptr inbounds nuw %"struct.gmx::ArrayRefIter", ptr %5, i32 0, i32 0
  %8 = load ptr, ptr %7, align 8, !tbaa !17
  %9 = getelementptr inbounds double, ptr %8, i64 %6
  store ptr %9, ptr %7, align 8, !tbaa !17
  ret ptr %5
}

; Function Attrs: mustprogress nounwind uwtable
define linkonce_odr noundef nonnull align 8 dereferenceable(8) ptr @_ZNK3gmx5boost14stl_interfaces2v118iterator_interfaceINS_12ArrayRefIterIKdEESt26random_access_iterator_tagS5_RS5_PS5_lvE7derivedEv(ptr noundef nonnull align 1 dereferenceable(1) %0) #2 comdat align 2 {
  %2 = alloca ptr, align 8
  store ptr %0, ptr %2, align 8, !tbaa !20
  %3 = load ptr, ptr %2, align 8
  ret ptr %3
}

; Function Attrs: mustprogress nounwind uwtable
define linkonce_odr noundef nonnull align 8 dereferenceable(8) ptr @_ZNK3gmx5boost14stl_interfaces2v118iterator_interfaceINS_12ArrayRefIterIKdEESt26random_access_iterator_tagS5_RS5_PS5_lvEixIS6_EEDTcmpLclsr3stdE7declvalIRT_EEfp_declsr3stdE7declvalISD_EEEl(ptr noundef nonnull align 1 dereferenceable(1) %0, i64 noundef %1) #2 comdat align 2 {
  %3 = alloca ptr, align 8
  %4 = alloca i64, align 8
  %5 = alloca %"struct.gmx::ArrayRefIter", align 8
  store ptr %0, ptr %3, align 8, !tbaa !20
  store i64 %1, ptr %4, align 8, !tbaa !13
  %6 = load ptr, ptr %3, align 8
  call void @llvm.lifetime.start.p0(i64 8, ptr %5) #15
  %7 = call noundef nonnull align 8 dereferenceable(8) ptr @_ZNK3gmx5boost14stl_interfaces2v118iterator_interfaceINS_12ArrayRefIterIKdEESt26random_access_iterator_tagS5_RS5_PS5_lvE7derivedEv(ptr noundef nonnull align 1 dereferenceable(1) %6) #15
  call void @llvm.memcpy.p0.p0.i64(ptr align 8 %5, ptr align 8 %7, i64 8, i1 false)
  %8 = load i64, ptr %4, align 8, !tbaa !13
  %9 = call noundef nonnull align 8 dereferenceable(8) ptr @_ZN3gmx12ArrayRefIterIKdEpLEl(ptr noundef nonnull align 8 dereferenceable(8) %5, i64 noundef %8) #15
  %10 = call noundef nonnull align 8 dereferenceable(8) ptr @_ZNK3gmx12ArrayRefIterIKdEdeEv(ptr noundef nonnull align 8 dereferenceable(8) %5) #15
  call void @llvm.lifetime.end.p0(i64 8, ptr %5) #15
  ret ptr %10
}

; Function Attrs: mustprogress nounwind uwtable
define linkonce_odr noundef i64 @_ZNK3gmx12ArrayRefIterIKdEmiES2_(ptr noundef nonnull align 8 dereferenceable(8) %0, ptr %1) #2 comdat align 2 {
  %3 = alloca %"struct.gmx::ArrayRefIter", align 8
  %4 = alloca ptr, align 8
  %5 = getelementptr inbounds nuw %"struct.gmx::ArrayRefIter", ptr %3, i32 0, i32 0
  store ptr %1, ptr %5, align 8
  store ptr %0, ptr %4, align 8, !tbaa !15
  %6 = load ptr, ptr %4, align 8
  %7 = getelementptr inbounds nuw %"struct.gmx::ArrayRefIter", ptr %6, i32 0, i32 0
  %8 = load ptr, ptr %7, align 8, !tbaa !17
  %9 = getelementptr inbounds nuw %"struct.gmx::ArrayRefIter", ptr %3, i32 0, i32 0
  %10 = load ptr, ptr %9, align 8, !tbaa !17
  %11 = ptrtoint ptr %8 to i64
  %12 = ptrtoint ptr %10 to i64
  %13 = sub i64 %11, %12
  %14 = sdiv exact i64 %13, 8
  ret i64 %14
}

; Function Attrs: mustprogress nounwind uwtable
define linkonce_odr noundef nonnull align 8 dereferenceable(8) ptr @_ZNK3gmx8ArrayRefIKdEixEm(ptr noundef nonnull align 8 dereferenceable(16) %0, i64 noundef %1) #2 comdat align 2 {
  %3 = alloca ptr, align 8
  %4 = alloca i64, align 8
  store ptr %0, ptr %3, align 8, !tbaa !10
  store i64 %1, ptr %4, align 8, !tbaa !13
  %5 = load ptr, ptr %3, align 8
  %6 = getelementptr inbounds nuw %"class.gmx::ArrayRef", ptr %5, i32 0, i32 0
  %7 = load i64, ptr %4, align 8, !tbaa !13
  %8 = call noundef nonnull align 8 dereferenceable(8) ptr @_ZNK3gmx5boost14stl_interfaces2v118iterator_interfaceINS_12ArrayRefIterIKdEESt26random_access_iterator_tagS5_RS5_PS5_lvEixIS6_EEDTcmpLclsr3stdE7declvalIRT_EEfp_declsr3stdE7declvalISD_EEEl(ptr noundef nonnull align 1 dereferenceable(1) %6, i64 noundef %7) #15
  ret ptr %8
}

; Function Attrs: mustprogress nounwind uwtable
define linkonce_odr noundef i64 @_ZNK3gmx8ArrayRefIKdE4sizeEv(ptr noundef nonnull align 8 dereferenceable(16) %0) #2 comdat align 2 {
  %2 = alloca ptr, align 8
  %3 = alloca %"struct.gmx::ArrayRefIter", align 8
  store ptr %0, ptr %2, align 8, !tbaa !10
  %4 = load ptr, ptr %2, align 8
  %5 = getelementptr inbounds nuw %"class.gmx::ArrayRef", ptr %4, i32 0, i32 1
  %6 = getelementptr inbounds nuw %"class.gmx::ArrayRef", ptr %4, i32 0, i32 0
  call void @llvm.memcpy.p0.p0.i64(ptr align 8 %3, ptr align 8 %6, i64 8, i1 false)
  %7 = getelementptr inbounds nuw %"struct.gmx::ArrayRefIter", ptr %3, i32 0, i32 0
  %8 = load ptr, ptr %7, align 8
  %9 = call noundef i64 @_ZNK3gmx12ArrayRefIterIKdEmiES2_(ptr noundef nonnull align 8 dereferenceable(8) %5, ptr %8) #15
  ret i64 %9
}

; Function Attrs: mustprogress uwtable
define noundef double @_ZN3gmx18getSqrtDeterminantENS_8ArrayRefIKdEE(ptr %0, ptr %1) #0 {
  %3 = alloca %"class.gmx::ArrayRef", align 8
  %4 = alloca double, align 8
  %5 = alloca double, align 8
  %6 = alloca double, align 8
  %7 = alloca double, align 8
  %8 = alloca double, align 8
  %9 = alloca double, align 8
  %10 = alloca double, align 8
  %11 = alloca double, align 8
  %12 = alloca double, align 8
  %13 = alloca double, align 8
  %14 = getelementptr inbounds nuw { ptr, ptr }, ptr %3, i32 0, i32 0
  store ptr %0, ptr %14, align 8
  %15 = getelementptr inbounds nuw { ptr, ptr }, ptr %3, i32 0, i32 1
  store ptr %1, ptr %15, align 8
  call void @llvm.lifetime.start.p0(i64 8, ptr %4) #15
  %16 = call noundef i64 @_ZNK3gmx8ArrayRefIKdE4sizeEv(ptr noundef nonnull align 8 dereferenceable(16) %3)
  switch i64 %16, label %76 [
    i64 1, label %17
    i64 3, label %20
    i64 6, label %34
  ]

17:                                               ; preds = %2
  %18 = call noundef nonnull align 8 dereferenceable(8) ptr @_ZNK3gmx8ArrayRefIKdEixEm(ptr noundef nonnull align 8 dereferenceable(16) %3, i64 noundef 0)
  %19 = load double, ptr %18, align 8, !tbaa !4
  store double %19, ptr %4, align 8, !tbaa !4
  br label %77

20:                                               ; preds = %2
  call void @llvm.lifetime.start.p0(i64 8, ptr %5) #15
  %21 = call noundef nonnull align 8 dereferenceable(8) ptr @_ZNK3gmx8ArrayRefIKdEixEm(ptr noundef nonnull align 8 dereferenceable(16) %3, i64 noundef 0)
  %22 = load double, ptr %21, align 8, !tbaa !4
  store double %22, ptr %5, align 8, !tbaa !4
  call void @llvm.lifetime.start.p0(i64 8, ptr %6) #15
  %23 = call noundef nonnull align 8 dereferenceable(8) ptr @_ZNK3gmx8ArrayRefIKdEixEm(ptr noundef nonnull align 8 dereferenceable(16) %3, i64 noundef 1)
  %24 = load double, ptr %23, align 8, !tbaa !4
  store double %24, ptr %6, align 8, !tbaa !4
  call void @llvm.lifetime.start.p0(i64 8, ptr %7) #15
  %25 = call noundef nonnull align 8 dereferenceable(8) ptr @_ZNK3gmx8ArrayRefIKdEixEm(ptr noundef nonnull align 8 dereferenceable(16) %3, i64 noundef 2)
  %26 = load double, ptr %25, align 8, !tbaa !4
  store double %26, ptr %7, align 8, !tbaa !4
  %27 = load double, ptr %5, align 8, !tbaa !4
  %28 = load double, ptr %7, align 8, !tbaa !4
  %29 = load double, ptr %6, align 8, !tbaa !4
  %30 = load double, ptr %6, align 8, !tbaa !4
  %31 = fmul double %29, %30
  %32 = fneg double %31
  %33 = call double @llvm.fmuladd.f64(double %27, double %28, double %32)
  store double %33, ptr %4, align 8, !tbaa !4
  call void @llvm.lifetime.end.p0(i64 8, ptr %7) #15
  call void @llvm.lifetime.end.p0(i64 8, ptr %6) #15
  call void @llvm.lifetime.end.p0(i64 8, ptr %5) #15
  br label %77

34:                                               ; preds = %2
  call void @llvm.lifetime.start.p0(i64 8, ptr %8) #15
  %35 = call noundef nonnull align 8 dereferenceable(8) ptr @_ZNK3gmx8ArrayRefIKdEixEm(ptr noundef nonnull align 8 dereferenceable(16) %3, i64 noundef 0)
  %36 = load double, ptr %35, align 8, !tbaa !4
  store double %36, ptr %8, align 8, !tbaa !4
  call void @llvm.lifetime.start.p0(i64 8, ptr %9) #15
  %37 = call noundef nonnull align 8 dereferenceable(8) ptr @_ZNK3gmx8ArrayRefIKdEixEm(ptr noundef nonnull align 8 dereferenceable(16) %3, i64 noundef 1)
  %38 = load double, ptr %37, align 8, !tbaa !4
  store double %38, ptr %9, align 8, !tbaa !4
  call void @llvm.lifetime.start.p0(i64 8, ptr %10) #15
  %39 = call noundef nonnull align 8 dereferenceable(8) ptr @_ZNK3gmx8ArrayRefIKdEixEm(ptr noundef nonnull align 8 dereferenceable(16) %3, i64 noundef 2)
  %40 = load double, ptr %39, align 8, !tbaa !4
  store double %40, ptr %10, align 8, !tbaa !4
  call void @llvm.lifetime.start.p0(i64 8, ptr %11) #15
  %41 = call noundef nonnull align 8 dereferenceable(8) ptr @_ZNK3gmx8ArrayRefIKdEixEm(ptr noundef nonnull align 8 dereferenceable(16) %3, i64 noundef 3)
  %42 = load double, ptr %41, align 8, !tbaa !4
  store double %42, ptr %11, align 8, !tbaa !4
  call void @llvm.lifetime.start.p0(i64 8, ptr %12) #15
  %43 = call noundef nonnull align 8 dereferenceable(8) ptr @_ZNK3gmx8ArrayRefIKdEixEm(ptr noundef nonnull align 8 dereferenceable(16) %3, i64 noundef 4)
  %44 = load double, ptr %43, align 8, !tbaa !4
  store double %44, ptr %12, align 8, !tbaa !4
  call void @llvm.lifetime.start.p0(i64 8, ptr %13) #15
  %45 = call noundef nonnull align 8 dereferenceable(8) ptr @_ZNK3gmx8ArrayRefIKdEixEm(ptr noundef nonnull align 8 dereferenceable(16) %3, i64 noundef 5)
  %46 = load double, ptr %45, align 8, !tbaa !4
  store double %46, ptr %13, align 8, !tbaa !4
  %47 = load double, ptr %8, align 8, !tbaa !4
  %48 = load double, ptr %10, align 8, !tbaa !4
  %49 = fmul double %47, %48
  %50 = load double, ptr %13, align 8, !tbaa !4
  %51 = load double, ptr %9, align 8, !tbaa !4
  %52 = fmul double 2.000000e+00, %51
  %53 = load double, ptr %11, align 8, !tbaa !4
  %54 = fmul double %52, %53
  %55 = load double, ptr %12, align 8, !tbaa !4
  %56 = fmul double %54, %55
  %57 = call double @llvm.fmuladd.f64(double %49, double %50, double %56)
  %58 = load double, ptr %11, align 8, !tbaa !4
  %59 = load double, ptr %10, align 8, !tbaa !4
  %60 = fmul double %58, %59
  %61 = load double, ptr %11, align 8, !tbaa !4
  %62 = fneg double %60
  %63 = call double @llvm.fmuladd.f64(double %62, double %61, double %57)
  %64 = load double, ptr %9, align 8, !tbaa !4
  %65 = load double, ptr %9, align 8, !tbaa !4
  %66 = fmul double %64, %65
  %67 = load double, ptr %13, align 8, !tbaa !4
  %68 = fneg double %66
  %69 = call double @llvm.fmuladd.f64(double %68, double %67, double %63)
  %70 = load double, ptr %8, align 8, !tbaa !4
  %71 = load double, ptr %12, align 8, !tbaa !4
  %72 = fmul double %70, %71
  %73 = load double, ptr %12, align 8, !tbaa !4
  %74 = fneg double %72
  %75 = call double @llvm.fmuladd.f64(double %74, double %73, double %69)
  store double %75, ptr %4, align 8, !tbaa !4
  call void @llvm.lifetime.end.p0(i64 8, ptr %13) #15
  call void @llvm.lifetime.end.p0(i64 8, ptr %12) #15
  call void @llvm.lifetime.end.p0(i64 8, ptr %11) #15
  call void @llvm.lifetime.end.p0(i64 8, ptr %10) #15
  call void @llvm.lifetime.end.p0(i64 8, ptr %9) #15
  call void @llvm.lifetime.end.p0(i64 8, ptr %8) #15
  br label %77

76:                                               ; preds = %2
  store double 0.000000e+00, ptr %4, align 8, !tbaa !4
  br label %77

77:                                               ; preds = %76, %34, %20, %17
  %78 = load double, ptr %4, align 8, !tbaa !4
  %79 = fcmp ogt double %78, 0.000000e+00
  br i1 %79, label %80, label %83

80:                                               ; preds = %77
  %81 = load double, ptr %4, align 8, !tbaa !4
  %82 = call double @sqrt(double noundef %81) #15, !tbaa !8
  br label %84

83:                                               ; preds = %77
  br label %84

84:                                               ; preds = %83, %80
  %85 = phi double [ %82, %80 ], [ 0.000000e+00, %83 ]
  call void @llvm.lifetime.end.p0(i64 8, ptr %4) #15
  ret double %85
}