; Function Attrs: mustprogress nofree nounwind willreturn memory(write, argmem: readwrite) uwtable
define noundef double @_ZN3gmx18getSqrtDeterminantENS_8ArrayRefIKdEE(ptr %0, ptr %1) local_unnamed_addr #0 {
  %3 = ptrtoint ptr %1 to i64
  %4 = ptrtoint ptr %0 to i64
  %5 = sub i64 %3, %4
  %6 = ashr exact i64 %5, 3
  switch i64 %6, label %.thread [
    i64 1, label %7
    i64 3, label %9
    i64 6, label %18
  ]

7:                                                ; preds = %2
  %8 = load double, ptr %0, align 8, !tbaa !4
  br label %44

9:                                                ; preds = %2
  %10 = load double, ptr %0, align 8, !tbaa !4
  %11 = getelementptr inbounds nuw i8, ptr %0, i64 8
  %12 = load double, ptr %11, align 8, !tbaa !4
  %13 = getelementptr inbounds nuw i8, ptr %0, i64 16
  %14 = load double, ptr %13, align 8, !tbaa !4
  %15 = fneg double %12
  %16 = fmul double %12, %15
  %17 = tail call double @llvm.fmuladd.f64(double %10, double %14, double %16)
  br label %44

18:                                               ; preds = %2
  %19 = load double, ptr %0, align 8, !tbaa !4
  %20 = getelementptr inbounds nuw i8, ptr %0, i64 8
  %21 = load double, ptr %20, align 8, !tbaa !4
  %22 = getelementptr inbounds nuw i8, ptr %0, i64 16
  %23 = load double, ptr %22, align 8, !tbaa !4
  %24 = getelementptr inbounds nuw i8, ptr %0, i64 24
  %25 = load double, ptr %24, align 8, !tbaa !4
  %26 = getelementptr inbounds nuw i8, ptr %0, i64 32
  %27 = load double, ptr %26, align 8, !tbaa !4
  %28 = getelementptr inbounds nuw i8, ptr %0, i64 40
  %29 = load double, ptr %28, align 8, !tbaa !4
  %30 = fmul double %19, %23
  %31 = fmul double %21, 2.000000e+00
  %32 = fmul double %31, %25
  %33 = fmul double %32, %27
  %34 = tail call double @llvm.fmuladd.f64(double %30, double %29, double %33)
  %35 = fneg double %23
  %36 = fmul double %25, %35
  %37 = tail call double @llvm.fmuladd.f64(double %36, double %25, double %34)
  %38 = fneg double %21
  %39 = fmul double %21, %38
  %40 = tail call double @llvm.fmuladd.f64(double %39, double %29, double %37)
  %41 = fneg double %27
  %42 = fmul double %19, %41
  %43 = tail call double @llvm.fmuladd.f64(double %42, double %27, double %40)
  br label %44

44:                                               ; preds = %18, %9, %7
  %.0 = phi double [ %43, %18 ], [ %17, %9 ], [ %8, %7 ]
  %45 = fcmp ogt double %.0, 0.000000e+00
  br i1 %45, label %46, label %.thread

46:                                               ; preds = %44
  %47 = tail call double @sqrt(double noundef %.0) #19, !tbaa !8
  br label %.thread

.thread:                                          ; preds = %2, %44, %46
  %48 = phi double [ %47, %46 ], [ 0.000000e+00, %44 ], [ 0.000000e+00, %2 ]
  ret double %48
}